; Function Attrs: nounwind uwtable
define void @Gia_MiniAigSuperGates_rec(ptr noundef readonly captures(none) %0, i32 noundef %1, ptr noundef captures(none) %2, ptr noundef readonly captures(none) %3) local_unnamed_addr #2 {
  %5 = getelementptr i8, ptr %0, i64 16
  br label %tailrecurse

tailrecurse:                                      ; preds = %Mini_AigNodeIsPi.exit.thread, %4
  %.tr19 = phi i32 [ %1, %4 ], [ %55, %Mini_AigNodeIsPi.exit.thread ]
  %6 = icmp sgt i32 %.tr19, 0
  %.val.pre = load ptr, ptr %5, align 8, !tbaa !3
  %7 = shl nsw i32 %.tr19, 1
  br i1 %6, label %Mini_AigNodeIsPi.exit, label %Mini_AigNodeIsPi.exit.thread

Mini_AigNodeIsPi.exit:                            ; preds = %tailrecurse
  %8 = zext nneg i32 %7 to i64
  %9 = getelementptr inbounds nuw i32, ptr %.val.pre, i64 %8
  %10 = load i32, ptr %9, align 4, !tbaa !10
  %.not = icmp eq i32 %10, 2147483647
  br i1 %.not, label %11, label %Mini_AigNodeIsPi.exit.thread

11:                                               ; preds = %Mini_AigNodeIsPi.exit
  %12 = getelementptr i8, ptr %3, i64 8
  %.val16 = load ptr, ptr %12, align 8, !tbaa !11
  %13 = zext nneg i32 %.tr19 to i64
  %14 = getelementptr inbounds nuw i32, ptr %.val16, i64 %13
  %15 = load i32, ptr %14, align 4, !tbaa !10
  %16 = getelementptr inbounds nuw i8, ptr %2, i64 4
  %17 = load i32, ptr %16, align 4, !tbaa !34
  %18 = load i32, ptr %2, align 8, !tbaa !33
  %19 = icmp eq i32 %17, %18
  br i1 %19, label %20, label %.Vec_IntGrow.exit10_crit_edge.i

.Vec_IntGrow.exit10_crit_edge.i:                  ; preds = %11
  %.phi.trans.insert.i = getelementptr inbounds nuw i8, ptr %2, i64 8
  %.pre.i = load ptr, ptr %.phi.trans.insert.i, align 8, !tbaa !11
  br label %Vec_IntPush.exit

20:                                               ; preds = %11
  %21 = icmp slt i32 %17, 16
  br i1 %21, label %22, label %30

22:                                               ; preds = %20
  %23 = getelementptr inbounds nuw i8, ptr %2, i64 8
  %24 = load ptr, ptr %23, align 8, !tbaa !11
  %.not9.i.i = icmp eq ptr %24, null
  br i1 %.not9.i.i, label %27, label %25

25:                                               ; preds = %22
  %26 = tail call dereferenceable_or_null(64) ptr @realloc(ptr noundef nonnull %24, i64 noundef 64) #27
  br label %Vec_IntGrow.exit.i

27:                                               ; preds = %22
  %28 = tail call noalias dereferenceable_or_null(64) ptr @malloc(i64 noundef 64) #26
  br label %Vec_IntGrow.exit.i

Vec_IntGrow.exit.i:                               ; preds = %27, %25
  %29 = phi ptr [ %26, %25 ], [ %28, %27 ]
  store ptr %29, ptr %23, align 8, !tbaa !11
  store i32 16, ptr %2, align 8, !tbaa !33
  br label %Vec_IntPush.exit

30:                                               ; preds = %20
  %31 = shl nuw nsw i32 %17, 1
  %32 = getelementptr inbounds nuw i8, ptr %2, i64 8
  %33 = load ptr, ptr %32, align 8, !tbaa !11
  %.not9.i9.i = icmp eq ptr %33, null
  %34 = zext nneg i32 %31 to i64
  %35 = shl nuw nsw i64 %34, 2
  br i1 %.not9.i9.i, label %38, label %36

36:                                               ; preds = %30
  %37 = tail call ptr @realloc(ptr noundef nonnull %33, i64 noundef %35) #27
  br label %40

38:                                               ; preds = %30
  %39 = tail call noalias ptr @malloc(i64 noundef %35) #26
  br label %40

40:                                               ; preds = %38, %36
  %41 = phi ptr [ %37, %36 ], [ %39, %38 ]
  store ptr %41, ptr %32, align 8, !tbaa !11
  store i32 %31, ptr %2, align 8, !tbaa !33
  br label %Vec_IntPush.exit

Vec_IntPush.exit:                                 ; preds = %.Vec_IntGrow.exit10_crit_edge.i, %Vec_IntGrow.exit.i, %40
  %42 = phi ptr [ %.pre.i, %.Vec_IntGrow.exit10_crit_edge.i ], [ %41, %40 ], [ %29, %Vec_IntGrow.exit.i ]
  %43 = load i32, ptr %16, align 4, !tbaa !34
  %44 = add nsw i32 %43, 1
  store i32 %44, ptr %16, align 4, !tbaa !34
  %45 = sext i32 %43 to i64
  %46 = getelementptr inbounds i32, ptr %42, i64 %45
  store i32 %15, ptr %46, align 4, !tbaa !10
  ret void

Mini_AigNodeIsPi.exit.thread:                     ; preds = %tailrecurse, %Mini_AigNodeIsPi.exit
  %47 = sext i32 %7 to i64
  %48 = getelementptr inbounds i32, ptr %.val.pre, i64 %47
  %49 = load i32, ptr %48, align 4, !tbaa !10
  %50 = or disjoint i32 %7, 1
  %51 = sext i32 %50 to i64
  %52 = getelementptr inbounds i32, ptr %.val.pre, i64 %51
  %53 = load i32, ptr %52, align 4, !tbaa !10
  %54 = ashr i32 %49, 1
  tail call void @Gia_MiniAigSuperGates_rec(ptr noundef nonnull %0, i32 noundef %54, ptr noundef %2, ptr noundef %3)
  %55 = ashr i32 %53, 1
  br label %tailrecurse
}